target datalayout = "e-m:e-p270:32:32-p271:32:32-p272:64:64-i64:64-i128:128-f80:128-n8:16:32:64-S128"
target triple = "x86_64-unknown-linux-gnu"

%class.symbol = type { ptr }
%class.rational = type { %class.mpq }
%class.mpq = type { %class.mpz, %class.mpz }
%class.mpz = type { i32, i8, ptr }
%class.rewriter_tpl = type { %class.rewriter_core, ptr, i32, %class.ptr_vector.1, %class.var_shifter, %class.inv_var_shifter, %class.obj_ref, %class.obj_ref.10, %class.obj_ref.10, %class.svector.11 }
%class.rewriter_core = type { ptr, ptr, i8, i8, %class.ptr_vector, ptr, %class.svector, %class.ref_vector, %class.ptr_vector, ptr, %class.ref_vector.3, %class.obj_hashtable, ptr, i32, %class.svector.8 }
%class.svector = type { %class.vector.0 }
%class.vector.0 = type { ptr }
%class.ref_vector = type { %class.ref_vector_core }
%class.ref_vector_core = type { %class.ref_manager_wrapper, %class.ptr_vector.1 }
%class.ref_manager_wrapper = type { ptr }
%class.ptr_vector = type { %class.vector }
%class.vector = type { ptr }
%class.ref_vector.3 = type { %class.ref_vector_core.4 }
%class.ref_vector_core.4 = type { %class.ref_manager_wrapper.5, %class.ptr_vector.6 }
%class.ref_manager_wrapper.5 = type { ptr }
%class.ptr_vector.6 = type { %class.vector.7 }
%class.vector.7 = type { ptr }
%class.obj_hashtable = type { %class.core_hashtable.base, [4 x i8] }
%class.core_hashtable.base = type <{ ptr, i32, i32, i32 }>
%class.svector.8 = type { %class.vector.9 }
%class.vector.9 = type { ptr }
%class.ptr_vector.1 = type { %class.vector.2 }
%class.vector.2 = type { ptr }
%class.var_shifter = type <{ %class.var_shifter_core, i32, i32, i32, [4 x i8] }>
%class.var_shifter_core = type { %class.rewriter_core }
%class.inv_var_shifter = type <{ %class.var_shifter_core, i32, [4 x i8] }>
%class.obj_ref = type { ptr, ptr }
%class.obj_ref.10 = type { ptr, ptr }
%class.svector.11 = type { %class.vector.12 }
%class.vector.12 = type { ptr }
%"struct.(anonymous namespace)::th_rewriter_cfg" = type <{ %class.bool_rewriter, %class.arith_rewriter, %class.bv_rewriter, %class.array_rewriter, %class.datatype_rewriter, %class.fpa_rewriter, %class.dl_rewriter, %class.pb_rewriter, %class.seq_rewriter, %class.char_rewriter, %class.recfun_rewriter, %class.arith_util, %class.bv_util, %class.der, %class.expr_safe_replace, %class.ref_vector, %class.obj_ref.71, ptr, i64, i8, [7 x i8], %class.ast_fast_mark, %class.obj_mark, i8, [3 x i8], i32, i8, i8, i8, i8, i8, i8, i8, i8, i8, [7 x i8] }>
%class.bool_rewriter = type { ptr, i8, i8, i8, i8, i8, i8, i32, i8, i32, i32, i8, %class.ptr_vector.1, %class.ptr_vector.1, %class.svector.11, %class.svector.11 }
%class.arith_rewriter = type { %class.poly_rewriter.base, i8, i8, i8, i8, i8, i8, i8, i8, i32 }
%class.poly_rewriter.base = type <{ %class.arith_rewriter_core.base, [5 x i8], ptr, %class.obj_map, i8, i8, [2 x i8], i32, i8, i8, i8, i8 }>
%class.arith_rewriter_core.base = type <{ ptr, %class.arith_util, %class.scoped_ptr, i8, i8, i8 }>
%class.scoped_ptr = type { ptr }
%class.obj_map = type { %class.core_hashtable.13 }
%class.core_hashtable.13 = type <{ ptr, i32, i32, i32, [4 x i8] }>
%class.bv_rewriter = type <{ %class.poly_rewriter.base.16, [4 x i8], %class.mk_extract_proc, %class.arith_util, i8, i8, i8, i8, i8, i8, i8, i8, i8, i8, i8, i8, i8, [3 x i8] }>
%class.poly_rewriter.base.16 = type <{ %class.bv_rewriter_core, ptr, %class.obj_map, i8, i8, [2 x i8], i32, i8, i8, i8, i8 }>
%class.bv_rewriter_core = type { ptr, %class.bv_util, %class.obj_ref }
%class.mk_extract_proc = type { ptr, i32, i32, ptr, ptr }
%class.array_rewriter = type <{ %class.array_util, i8, i8, i8, i8, i8, i8, [2 x i8] }>
%class.array_util = type { %class.array_recognizers, ptr }
%class.array_recognizers = type { i32 }
%class.datatype_rewriter = type { %"class.datatype::util" }
%"class.datatype::util" = type { ptr, i32, ptr, %class.obj_map.17, %class.obj_map.22, %class.obj_map.27, %class.obj_map.32, %class.obj_map.32, %class.obj_map.32, %class.obj_map.37, %class.obj_map.37, %class.obj_map.37, %class.ref_vector.42, %class.ref_vector_core.47, %class.ptr_vector.50, i32, %class.ptr_vector.52 }
%class.obj_map.17 = type { %class.core_hashtable.18 }
%class.core_hashtable.18 = type <{ ptr, i32, i32, i32, [4 x i8] }>
%class.obj_map.22 = type { %class.core_hashtable.23 }
%class.core_hashtable.23 = type <{ ptr, i32, i32, i32, [4 x i8] }>
%class.obj_map.27 = type { %class.core_hashtable.28 }
%class.core_hashtable.28 = type <{ ptr, i32, i32, i32, [4 x i8] }>
%class.obj_map.32 = type { %class.core_hashtable.33 }
%class.core_hashtable.33 = type <{ ptr, i32, i32, i32, [4 x i8] }>
%class.obj_map.37 = type { %class.core_hashtable.38 }
%class.core_hashtable.38 = type <{ ptr, i32, i32, i32, [4 x i8] }>
%class.ref_vector.42 = type { %class.ref_vector_core.43 }
%class.ref_vector_core.43 = type { %class.ref_manager_wrapper.44, %class.ptr_vector.45 }
%class.ref_manager_wrapper.44 = type { ptr }
%class.ptr_vector.45 = type { %class.vector.46 }
%class.vector.46 = type { ptr }
%class.ref_vector_core.47 = type { %class.ptr_vector.48 }
%class.ptr_vector.48 = type { %class.vector.49 }
%class.vector.49 = type { ptr }
%class.ptr_vector.50 = type { %class.vector.51 }
%class.vector.51 = type { ptr }
%class.ptr_vector.52 = type { %class.vector.53 }
%class.vector.53 = type { ptr }
%class.fpa_rewriter = type <{ %class.fpa_util, ptr, i8, [7 x i8] }>
%class.fpa_util = type { ptr, ptr, i32, %class.arith_util, %class.bv_util }
%class.dl_rewriter = type { %"class.datalog::dl_decl_util" }
%"class.datalog::dl_decl_util" = type <{ ptr, %class.scoped_ptr.54, %class.scoped_ptr.55, i32, [4 x i8] }>
%class.scoped_ptr.54 = type { ptr }
%class.scoped_ptr.55 = type { ptr }
%class.pb_rewriter = type { %class.pb_util, %class.vector.56, %class.ptr_vector.1 }
%class.pb_util = type { ptr, i32, %class.vector.56, %class.vector.57, %class.rational }
%class.vector.57 = type { ptr }
%class.vector.56 = type { ptr }
%class.seq_rewriter = type <{ %class.seq_util, %class.arith_util, %class.bool_rewriter, %class.re2automaton, %"class.seq_rewriter::op_cache", %class.ref_vector, %class.ref_vector, %class.ref_vector, i8, [7 x i8] }>
%class.seq_util = type { ptr, ptr, ptr, i32, [4 x i8], %"class.seq_util::str", %"class.seq_util::rex" }
%"class.seq_util::str" = type <{ ptr, ptr, i32, [4 x i8] }>
%"class.seq_util::rex" = type { ptr, ptr, i32, %class.vector.58, %class.ref_vector, %"struct.seq_util::rex::info", %"struct.seq_util::rex::info" }
%class.vector.58 = type { ptr }
%"struct.seq_util::rex::info" = type { i32, i8, i32, i32 }
%class.re2automaton = type { ptr, %class.sym_expr_manager, %class.seq_util, %class.scoped_ptr.59, %class.scoped_ptr.60, %class.scoped_ptr.61 }
%class.sym_expr_manager = type { i8 }
%class.scoped_ptr.59 = type { ptr }
%class.scoped_ptr.60 = type { ptr }
%class.scoped_ptr.61 = type { ptr }
%"class.seq_rewriter::op_cache" = type { i32, %class.ref_vector, %class.hashtable }
%class.hashtable = type { %class.core_hashtable.base.63, [4 x i8] }
%class.core_hashtable.base.63 = type <{ ptr, i32, i32, i32 }>
%class.char_rewriter = type { ptr, ptr }
%class.recfun_rewriter = type { ptr, %"class.recfun::util" }
%"class.recfun::util" = type { ptr, i32, ptr }
%class.arith_util = type { ptr, ptr }
%class.bv_util = type { %class.bv_recognizers, ptr, ptr }
%class.bv_recognizers = type { i32 }
%class.der = type { ptr, %class.var_subst, %class.ref_buffer, %class.ref_vector, %class.svector.65, %class.ptr_vector.67, %class.svector.11, %class.ref_vector, %class.ref_vector }
%class.var_subst = type { %class.beta_reducer, i8, [7 x i8] }
%class.beta_reducer = type <{ %class.rewriter_tpl.64, %struct.beta_reducer_cfg, [7 x i8] }>
%class.rewriter_tpl.64 = type { %class.rewriter_core, ptr, i32, %class.ptr_vector.1, %class.var_shifter, %class.inv_var_shifter, %class.obj_ref, %class.obj_ref.10, %class.obj_ref.10, %class.svector.11 }
%struct.beta_reducer_cfg = type { i8 }
%class.ref_buffer = type { %class.ref_buffer_core }
%class.ref_buffer_core = type { %class.ref_manager_wrapper, %class.ptr_buffer }
%class.ptr_buffer = type { %class.buffer }
%class.buffer = type { ptr, i32, i32, [16 x %"union.std::aligned_storage<8, 8>::type"] }
%"union.std::aligned_storage<8, 8>::type" = type { [8 x i8] }
%class.svector.65 = type { %class.vector.66 }
%class.vector.66 = type { ptr }
%class.ptr_vector.67 = type { %class.vector.68 }
%class.vector.68 = type { ptr }
%class.expr_safe_replace = type { ptr, %class.ref_vector, %class.ref_vector, %class.svector.11, %class.ptr_vector.1, %class.ptr_vector.1, %class.ref_vector, %"class.std::unordered_map" }
%"class.std::unordered_map" = type { %"class.std::_Hashtable" }
%"class.std::_Hashtable" = type { ptr, i64, %"struct.std::__detail::_Hash_node_base", i64, %"struct.std::__detail::_Prime_rehash_policy", ptr }
%"struct.std::__detail::_Hash_node_base" = type { ptr }
%"struct.std::__detail::_Prime_rehash_policy" = type { float, i64 }
%class.obj_ref.71 = type { ptr, ptr }
%class.ast_fast_mark = type { %class.ptr_buffer.72 }
%class.ptr_buffer.72 = type { %class.buffer.73 }
%class.buffer.73 = type { ptr, i32, i32, [16 x %"union.std::aligned_storage<8, 8>::type"] }
%class.obj_mark = type { %struct.default_t2uint, %class.bit_vector }
%struct.default_t2uint = type { i8 }
%class.bit_vector = type { i32, i32, ptr }
%class.ast = type { i32, i24, i32, i32 }
%class.arith_rewriter_core = type <{ ptr, %class.arith_util, %class.scoped_ptr, i8, i8, i8, [5 x i8] }>
%class.decl = type { %class.ast, %class.symbol, ptr }
%class.decl_info = type <{ i32, i32, %class.vector.57, i8, [7 x i8] }>

; Function Attrs: mustprogress nounwind uwtable
define linkonce_odr hidden noundef i32 @_ZNK14bv_recognizers7get_fidEv(ptr noundef nonnull align 4 dereferenceable(4) %this) #5 comdat align 2 {
entry:
  %this.addr = alloca ptr, align 8
  store ptr %this, ptr %this.addr, align 8
  %this1 = load ptr, ptr %this.addr, align 8
  %m_afid = getelementptr inbounds %class.bv_recognizers, ptr %this1, i32 0, i32 0
  %0 = load i32, ptr %m_afid, align 4
  ret i32 %0
}

; Function Attrs: mustprogress uwtable
define linkonce_odr hidden noundef i32 @_ZNK14bv_recognizers13get_family_idEv(ptr noundef nonnull align 4 dereferenceable(4) %this) #4 comdat align 2 {
entry:
  %this.addr = alloca ptr, align 8
  store ptr %this, ptr %this.addr, align 8
  %this1 = load ptr, ptr %this.addr, align 8
  %call = call noundef i32 @_ZNK14bv_recognizers7get_fidEv(ptr noundef nonnull align 4 dereferenceable(4) %this1)
  ret i32 %call
}

; Function Attrs: mustprogress nounwind uwtable
define linkonce_odr hidden noundef i32 @_ZNK17arith_recognizers13get_family_idEv(ptr noundef nonnull align 1 dereferenceable(1) %this) #5 comdat align 2 {
entry:
  %this.addr = alloca ptr, align 8
  store ptr %this, ptr %this.addr, align 8
  ret i32 5
}

; Function Attrs: mustprogress uwtable
define linkonce_odr hidden noundef i32 @_ZNK16bv_rewriter_core7get_fidEv(ptr noundef nonnull align 8 dereferenceable(48) %this) #4 comdat align 2 {
entry:
  %this.addr = alloca ptr, align 8
  store ptr %this, ptr %this.addr, align 8
  %this1 = load ptr, ptr %this.addr, align 8
  %m_util = getelementptr inbounds %class.bv_rewriter_core, ptr %this1, i32 0, i32 1
  %call = call noundef i32 @_ZNK14bv_recognizers13get_family_idEv(ptr noundef nonnull align 4 dereferenceable(4) %m_util)
  ret i32 %call
}

; Function Attrs: mustprogress uwtable
define linkonce_odr hidden noundef i32 @_ZNK19arith_rewriter_core7get_fidEv(ptr noundef nonnull align 8 dereferenceable(35) %this) #4 comdat align 2 {
entry:
  %this.addr = alloca ptr, align 8
  store ptr %this, ptr %this.addr, align 8
  %this1 = load ptr, ptr %this.addr, align 8
  %m_util = getelementptr inbounds %class.arith_rewriter_core, ptr %this1, i32 0, i32 1
  %call = call noundef i32 @_ZNK17arith_recognizers13get_family_idEv(ptr noundef nonnull align 1 dereferenceable(1) %m_util)
  ret i32 %call
}

; Function Attrs: mustprogress nounwind uwtable
define linkonce_odr hidden noundef i32 @_ZNK11ast_manager19get_basic_family_idEv(ptr noundef nonnull align 8 dereferenceable(976) %this) #5 comdat align 2 {
entry:
  %this.addr = alloca ptr, align 8
  store ptr %this, ptr %this.addr, align 8
  ret i32 0
}

; Function Attrs: mustprogress nounwind uwtable
define linkonce_odr hidden noundef nonnull align 8 dereferenceable(976) ptr @_ZNK13bool_rewriter1mEv(ptr noundef nonnull align 8 dereferenceable(72) %this) #5 comdat align 2 {
entry:
  %this.addr = alloca ptr, align 8
  store ptr %this, ptr %this.addr, align 8
  %this1 = load ptr, ptr %this.addr, align 8
  %m_manager = getelementptr inbounds %class.bool_rewriter, ptr %this1, i32 0, i32 0
  %0 = load ptr, ptr %m_manager, align 8
  ret ptr %0
}

; Function Attrs: mustprogress nounwind uwtable
define linkonce_odr hidden noundef i32 @_ZNK9decl_info13get_decl_kindEv(ptr noundef nonnull align 8 dereferenceable(17) %this) #5 comdat align 2 {
entry:
  %this.addr = alloca ptr, align 8
  store ptr %this, ptr %this.addr, align 8
  %this1 = load ptr, ptr %this.addr, align 8
  %m_kind = getelementptr inbounds %class.decl_info, ptr %this1, i32 0, i32 1
  %0 = load i32, ptr %m_kind, align 4
  ret i32 %0
}

; Function Attrs: mustprogress nounwind uwtable
define linkonce_odr hidden noundef i32 @_ZNK9decl_info13get_family_idEv(ptr noundef nonnull align 8 dereferenceable(17) %this) #5 comdat align 2 {
entry:
  %this.addr = alloca ptr, align 8
  store ptr %this, ptr %this.addr, align 8
  %this1 = load ptr, ptr %this.addr, align 8
  %m_family_id = getelementptr inbounds %class.decl_info, ptr %this1, i32 0, i32 0
  %0 = load i32, ptr %m_family_id, align 8
  ret i32 %0
}

; Function Attrs: mustprogress uwtable
define linkonce_odr hidden noundef i32 @_ZNK13poly_rewriterI16bv_rewriter_coreE7get_fidEv(ptr noundef nonnull align 8 dereferenceable(92) %this) #4 comdat align 2 {
entry:
  %this.addr = alloca ptr, align 8
  store ptr %this, ptr %this.addr, align 8
  %this1 = load ptr, ptr %this.addr, align 8
  %call = call noundef i32 @_ZNK16bv_rewriter_core7get_fidEv(ptr noundef nonnull align 8 dereferenceable(48) %this1)
  ret i32 %call
}

; Function Attrs: mustprogress uwtable
define linkonce_odr hidden noundef i32 @_ZNK13poly_rewriterI19arith_rewriter_coreE7get_fidEv(ptr noundef nonnull align 8 dereferenceable(84) %this) #4 comdat align 2 {
entry:
  %this.addr = alloca ptr, align 8
  store ptr %this, ptr %this.addr, align 8
  %this1 = load ptr, ptr %this.addr, align 8
  %call = call noundef i32 @_ZNK19arith_rewriter_core7get_fidEv(ptr noundef nonnull align 8 dereferenceable(35) %this1)
  ret i32 %call
}

; Function Attrs: mustprogress uwtable
define linkonce_odr hidden noundef i32 @_ZNK13bool_rewriter7get_fidEv(ptr noundef nonnull align 8 dereferenceable(72) %this) #4 comdat align 2 {
entry:
  %this.addr = alloca ptr, align 8
  store ptr %this, ptr %this.addr, align 8
  %this1 = load ptr, ptr %this.addr, align 8
  %call = call noundef nonnull align 8 dereferenceable(976) ptr @_ZNK13bool_rewriter1mEv(ptr noundef nonnull align 8 dereferenceable(72) %this1)
  %call2 = call noundef i32 @_ZNK11ast_manager19get_basic_family_idEv(ptr noundef nonnull align 8 dereferenceable(976) %call)
  ret i32 %call2
}

; Function Attrs: mustprogress uwtable
define linkonce_odr hidden noundef i32 @_ZNK4decl13get_decl_kindEv(ptr noundef nonnull align 8 dereferenceable(32) %this) #4 comdat align 2 {
entry:
  %this.addr = alloca ptr, align 8
  store ptr %this, ptr %this.addr, align 8
  %this1 = load ptr, ptr %this.addr, align 8
  %m_info = getelementptr inbounds %class.decl, ptr %this1, i32 0, i32 2
  %0 = load ptr, ptr %m_info, align 8
  %cmp = icmp eq ptr %0, null
  br i1 %cmp, label %cond.true, label %cond.false

cond.true:                                        ; preds = %entry
  br label %cond.end

cond.false:                                       ; preds = %entry
  %m_info2 = getelementptr inbounds %class.decl, ptr %this1, i32 0, i32 2
  %1 = load ptr, ptr %m_info2, align 8
  %call = call noundef i32 @_ZNK9decl_info13get_decl_kindEv(ptr noundef nonnull align 8 dereferenceable(17) %1)
  br label %cond.end

cond.end:                                         ; preds = %cond.false, %cond.true
  %cond = phi i32 [ -1, %cond.true ], [ %call, %cond.false ]
  ret i32 %cond
}

; Function Attrs: mustprogress uwtable
define linkonce_odr hidden noundef i32 @_ZNK4decl13get_family_idEv(ptr noundef nonnull align 8 dereferenceable(32) %this) #4 comdat align 2 {
entry:
  %this.addr = alloca ptr, align 8
  store ptr %this, ptr %this.addr, align 8
  %this1 = load ptr, ptr %this.addr, align 8
  %m_info = getelementptr inbounds %class.decl, ptr %this1, i32 0, i32 2
  %0 = load ptr, ptr %m_info, align 8
  %cmp = icmp eq ptr %0, null
  br i1 %cmp, label %cond.true, label %cond.false

cond.true:                                        ; preds = %entry
  br label %cond.end

cond.false:                                       ; preds = %entry
  %m_info2 = getelementptr inbounds %class.decl, ptr %this1, i32 0, i32 2
  %1 = load ptr, ptr %m_info2, align 8
  %call = call noundef i32 @_ZNK9decl_info13get_family_idEv(ptr noundef nonnull align 8 dereferenceable(17) %1)
  br label %cond.end

cond.end:                                         ; preds = %cond.false, %cond.true
  %cond = phi i32 [ -1, %cond.true ], [ %call, %cond.false ]
  ret i32 %cond
}

; Function Attrs: mustprogress uwtable
define internal noundef zeroext i1 @_ZNK12_GLOBAL__N_115th_rewriter_cfg10flat_assocEP9func_decl(ptr noundef nonnull align 8 dereferenceable(2585) %this, ptr noundef %f) #4 align 2 {
entry:
  %retval = alloca i1, align 1
  %this.addr = alloca ptr, align 8
  %f.addr = alloca ptr, align 8
  %fid = alloca i32, align 4
  %k = alloca i32, align 4
  store ptr %this, ptr %this.addr, align 8
  store ptr %f, ptr %f.addr, align 8
  %this1 = load ptr, ptr %this.addr, align 8
  %m_flat = getelementptr inbounds %"struct.(anonymous namespace)::th_rewriter_cfg", ptr %this1, i32 0, i32 27
  %0 = load i8, ptr %m_flat, align 1
  %tobool = trunc i8 %0 to i1
  br i1 %tobool, label %if.end, label %if.then

if.then:                                          ; preds = %entry
  store i1 false, ptr %retval, align 1
  br label %return

if.end:                                           ; preds = %entry
  %1 = load ptr, ptr %f.addr, align 8
  %call = call noundef i32 @_ZNK4decl13get_family_idEv(ptr noundef nonnull align 8 dereferenceable(32) %1)
  store i32 %call, ptr %fid, align 4
  %2 = load i32, ptr %fid, align 4
  %cmp = icmp eq i32 %2, -1
  br i1 %cmp, label %if.then2, label %if.end3

if.then2:                                         ; preds = %if.end
  store i1 false, ptr %retval, align 1
  br label %return

if.end3:                                          ; preds = %if.end
  %3 = load ptr, ptr %f.addr, align 8
  %call4 = call noundef i32 @_ZNK4decl13get_decl_kindEv(ptr noundef nonnull align 8 dereferenceable(32) %3)
  store i32 %call4, ptr %k, align 4
  %4 = load i32, ptr %fid, align 4
  %m_b_rw = getelementptr inbounds %"struct.(anonymous namespace)::th_rewriter_cfg", ptr %this1, i32 0, i32 0
  %call5 = call noundef i32 @_ZNK13bool_rewriter7get_fidEv(ptr noundef nonnull align 8 dereferenceable(72) %m_b_rw)
  %cmp6 = icmp eq i32 %4, %call5
  br i1 %cmp6, label %if.then7, label %if.end10

if.then7:                                         ; preds = %if.end3
  %5 = load i32, ptr %k, align 4
  %cmp8 = icmp eq i32 %5, 5
  br i1 %cmp8, label %lor.end, label %lor.rhs

lor.rhs:                                          ; preds = %if.then7
  %6 = load i32, ptr %k, align 4
  %cmp9 = icmp eq i32 %6, 6
  br label %lor.end

lor.end:                                          ; preds = %lor.rhs, %if.then7
  %7 = phi i1 [ true, %if.then7 ], [ %cmp9, %lor.rhs ]
  store i1 %7, ptr %retval, align 1
  br label %return

if.end10:                                         ; preds = %if.end3
  %8 = load i32, ptr %fid, align 4
  %m_a_rw = getelementptr inbounds %"struct.(anonymous namespace)::th_rewriter_cfg", ptr %this1, i32 0, i32 1
  %call11 = call noundef i32 @_ZNK13poly_rewriterI19arith_rewriter_coreE7get_fidEv(ptr noundef nonnull align 8 dereferenceable(84) %m_a_rw)
  %cmp12 = icmp eq i32 %8, %call11
  br i1 %cmp12, label %if.then13, label %if.end15

if.then13:                                        ; preds = %if.end10
  %9 = load i32, ptr %k, align 4
  %cmp14 = icmp eq i32 %9, 6
  store i1 %cmp14, ptr %retval, align 1
  br label %return

if.end15:                                         ; preds = %if.end10
  %10 = load i32, ptr %fid, align 4
  %m_bv_rw = getelementptr inbounds %"struct.(anonymous namespace)::th_rewriter_cfg", ptr %this1, i32 0, i32 2
  %call16 = call noundef i32 @_ZNK13poly_rewriterI16bv_rewriter_coreE7get_fidEv(ptr noundef nonnull align 8 dereferenceable(92) %m_bv_rw)
  %cmp17 = icmp eq i32 %10, %call16
  br i1 %cmp17, label %if.then18, label %if.end26

if.then18:                                        ; preds = %if.end15
  %11 = load i32, ptr %k, align 4
  %cmp19 = icmp eq i32 %11, 4
  br i1 %cmp19, label %lor.end25, label %lor.lhs.false

lor.lhs.false:                                    ; preds = %if.then18
  %12 = load i32, ptr %k, align 4
  %cmp20 = icmp eq i32 %12, 31
  br i1 %cmp20, label %lor.end25, label %lor.lhs.false21

lor.lhs.false21:                                  ; preds = %lor.lhs.false
  %13 = load i32, ptr %k, align 4
  %cmp22 = icmp eq i32 %13, 30
  br i1 %cmp22, label %lor.end25, label %lor.rhs23

lor.rhs23:                                        ; preds = %lor.lhs.false21
  %14 = load i32, ptr %k, align 4
  %cmp24 = icmp eq i32 %14, 33
  br label %lor.end25

lor.end25:                                        ; preds = %lor.rhs23, %lor.lhs.false21, %lor.lhs.false, %if.then18
  %15 = phi i1 [ true, %lor.lhs.false21 ], [ true, %lor.lhs.false ], [ true, %if.then18 ], [ %cmp24, %lor.rhs23 ]
  store i1 %15, ptr %retval, align 1
  br label %return

if.end26:                                         ; preds = %if.end15
  store i1 false, ptr %retval, align 1
  br label %return

return:                                           ; preds = %if.end26, %lor.end25, %if.then13, %lor.end, %if.then2, %if.then
  %16 = load i1, ptr %retval, align 1
  ret i1 %16
}

; Function Attrs: mustprogress uwtable
define internal noundef zeroext i1 @_ZNK12rewriter_tplIN12_GLOBAL__N_115th_rewriter_cfgEE10flat_assocEP9func_decl(ptr noundef nonnull align 8 dereferenceable(536) %this, ptr noundef %f) #4 align 2 {
entry:
  %this.addr = alloca ptr, align 8
  %f.addr = alloca ptr, align 8
  store ptr %this, ptr %this.addr, align 8
  store ptr %f, ptr %f.addr, align 8
  %this1 = load ptr, ptr %this.addr, align 8
  %m_cfg = getelementptr inbounds %class.rewriter_tpl, ptr %this1, i32 0, i32 1
  %0 = load ptr, ptr %m_cfg, align 8
  %1 = load ptr, ptr %f.addr, align 8
  %call = call noundef zeroext i1 @_ZNK12_GLOBAL__N_115th_rewriter_cfg10flat_assocEP9func_decl(ptr noundef nonnull align 8 dereferenceable(2585) %0, ptr noundef %1)
  ret i1 %call
}