; Function Attrs: mustprogress nofree norecurse nosync nounwind willreturn memory(read, inaccessiblemem: none) uwtable
define internal fastcc noundef zeroext i1 @_ZNK12rewriter_tplIN12_GLOBAL__N_115th_rewriter_cfgEE10flat_assocEP9func_decl(i32 %this.144.val.176.val, i8 %this.144.val.2577.val, ptr nocapture noundef readonly %f) unnamed_addr #4 align 2 {
entry:
  %0 = and i8 %this.144.val.2577.val, 1
  %tobool.not.i = icmp eq i8 %0, 0
  br i1 %tobool.not.i, label %_ZNK12_GLOBAL__N_115th_rewriter_cfg10flat_assocEP9func_decl.exit, label %if.end.i

if.end.i:                                         ; preds = %entry
  %m_info.i.i = getelementptr inbounds i8, ptr %f, i64 24
  %1 = load ptr, ptr %m_info.i.i, align 8
  %cmp.i.i = icmp eq ptr %1, null
  br i1 %cmp.i.i, label %_ZNK12_GLOBAL__N_115th_rewriter_cfg10flat_assocEP9func_decl.exit, label %_ZNK4decl13get_family_idEv.exit.i

_ZNK4decl13get_family_idEv.exit.i:                ; preds = %if.end.i
  %2 = load i32, ptr %1, align 8
  %cmp.i = icmp eq i32 %2, -1
  br i1 %cmp.i, label %_ZNK12_GLOBAL__N_115th_rewriter_cfg10flat_assocEP9func_decl.exit, label %_ZNK4decl13get_decl_kindEv.exit.i

_ZNK4decl13get_decl_kindEv.exit.i:                ; preds = %_ZNK4decl13get_family_idEv.exit.i
  %m_kind.i.i.i = getelementptr inbounds i8, ptr %1, i64 4
  %3 = load i32, ptr %m_kind.i.i.i, align 4
  switch i32 %2, label %if.end15.i [
    i32 0, label %if.then7.i
    i32 5, label %if.then13.i
  ]

if.then7.i:                                       ; preds = %_ZNK4decl13get_decl_kindEv.exit.i
  %4 = add i32 %3, -5
  %5 = icmp ult i32 %4, 2
  br label %_ZNK12_GLOBAL__N_115th_rewriter_cfg10flat_assocEP9func_decl.exit

if.then13.i:                                      ; preds = %_ZNK4decl13get_decl_kindEv.exit.i
  %cmp14.i = icmp eq i32 %3, 6
  br label %_ZNK12_GLOBAL__N_115th_rewriter_cfg10flat_assocEP9func_decl.exit

if.end15.i:                                       ; preds = %_ZNK4decl13get_decl_kindEv.exit.i
  %cmp17.i = icmp eq i32 %2, %this.144.val.176.val
  %6 = icmp ult i32 %3, 34
  %or.cond = select i1 %cmp17.i, i1 %6, i1 false
  br i1 %or.cond, label %switch.lookup, label %_ZNK12_GLOBAL__N_115th_rewriter_cfg10flat_assocEP9func_decl.exit

switch.lookup:                                    ; preds = %if.end15.i
  %switch.cast = zext nneg i32 %3 to i34
  %switch.downshift = lshr i34 -5368709104, %switch.cast
  %7 = and i34 %switch.downshift, 1
  %switch.masked = icmp ne i34 %7, 0
  br label %_ZNK12_GLOBAL__N_115th_rewriter_cfg10flat_assocEP9func_decl.exit

_ZNK12_GLOBAL__N_115th_rewriter_cfg10flat_assocEP9func_decl.exit: ; preds = %switch.lookup, %entry, %if.end.i, %_ZNK4decl13get_family_idEv.exit.i, %if.then7.i, %if.then13.i, %if.end15.i
  %retval.0.i = phi i1 [ %5, %if.then7.i ], [ %cmp14.i, %if.then13.i ], [ false, %entry ], [ false, %_ZNK4decl13get_family_idEv.exit.i ], [ false, %if.end15.i ], [ false, %if.end.i ], [ %switch.masked, %switch.lookup ]
  ret i1 %retval.0.i
}